#include <math.h>
#include <stdio.h>
#include <stdlib.h>
#include <string.h>

int main()
{
    char s[51],w[51];
    scanf("%s%s",s,w);
    int m,n,t;
    m=strlen(s);
    n=strlen(w);
    for(int i=0;i<n-m+1;i++)
    {
        t=0;
        for(int j=0;j<m;j++)
        {
            if(s[j]!=w[i+j]) {t=1;break;}
        }
        if(t==0) {printf("%d\n",i);break;}
    }
}